target datalayout = "e-m:e-p270:32:32-p271:32:32-p272:64:64-i64:64-i128:128-f80:128-n8:16:32:64-S128"
target triple = "x86_64-pc-linux-gnu"

@.str.10 = private unnamed_addr constant [4 x i8] c"new\00", align 1
@__const.lua_cjson_safe_new.func = private unnamed_addr constant [3 x ptr] [ptr @.str.2, ptr @.str.1, ptr null], align 16

; Function Attrs: nounwind uwtable
define internal i32 @lua_cjson_safe_new(ptr noundef %0) #0 {
  %2 = alloca ptr, align 8
  %3 = alloca [3 x ptr], align 16
  %4 = alloca i32, align 4
  store ptr %0, ptr %2, align 8, !tbaa !4
  call void @llvm.lifetime.start.p0(i64 24, ptr %3) #9
  call void @llvm.memcpy.p0.p0.i64(ptr align 16 %3, ptr align 16 @__const.lua_cjson_safe_new.func, i64 24, i1 false)
  call void @llvm.lifetime.start.p0(i64 4, ptr %4) #9
  %5 = load ptr, ptr %2, align 8, !tbaa !4
  %6 = call i32 @lua_cjson_new(ptr noundef %5)
  %7 = load ptr, ptr %2, align 8, !tbaa !4
  call void @lua_pushcclosure(ptr noundef %7, ptr noundef @lua_cjson_safe_new, i32 noundef 0)
  %8 = load ptr, ptr %2, align 8, !tbaa !4
  call void @lua_setfield(ptr noundef %8, i32 noundef -2, ptr noundef @.str.10)
  store i32 0, ptr %4, align 4, !tbaa !9
  br label %9

9:                                                ; preds = %27, %1
  %10 = load i32, ptr %4, align 4, !tbaa !9
  %11 = sext i32 %10 to i64
  %12 = getelementptr inbounds [3 x ptr], ptr %3, i64 0, i64 %11
  %13 = load ptr, ptr %12, align 8, !tbaa !11
  %14 = icmp ne ptr %13, null
  br i1 %14, label %15, label %30

15:                                               ; preds = %9
  %16 = load ptr, ptr %2, align 8, !tbaa !4
  %17 = load i32, ptr %4, align 4, !tbaa !9
  %18 = sext i32 %17 to i64
  %19 = getelementptr inbounds [3 x ptr], ptr %3, i64 0, i64 %18
  %20 = load ptr, ptr %19, align 8, !tbaa !11
  call void @lua_getfield(ptr noundef %16, i32 noundef -1, ptr noundef %20)
  %21 = load ptr, ptr %2, align 8, !tbaa !4
  call void @lua_pushcclosure(ptr noundef %21, ptr noundef @json_protect_conversion, i32 noundef 1)
  %22 = load ptr, ptr %2, align 8, !tbaa !4
  %23 = load i32, ptr %4, align 4, !tbaa !9
  %24 = sext i32 %23 to i64
  %25 = getelementptr inbounds [3 x ptr], ptr %3, i64 0, i64 %24
  %26 = load ptr, ptr %25, align 8, !tbaa !11
  call void @lua_setfield(ptr noundef %22, i32 noundef -2, ptr noundef %26)
  br label %27

27:                                               ; preds = %15
  %28 = load i32, ptr %4, align 4, !tbaa !9
  %29 = add nsw i32 %28, 1
  store i32 %29, ptr %4, align 4, !tbaa !9
  br label %9, !llvm.loop !13

30:                                               ; preds = %9
  call void @llvm.lifetime.end.p0(i64 4, ptr %4) #9
  call void @llvm.lifetime.end.p0(i64 24, ptr %3) #9
  ret i32 1
}

; Function Attrs: nounwind uwtable
define dso_local i32 @luaopen_cjson_safe(ptr noundef %0) #0 {
  %2 = alloca ptr, align 8
  store ptr %0, ptr %2, align 8, !tbaa !4
  %3 = load ptr, ptr %2, align 8, !tbaa !4
  %4 = call i32 @lua_cjson_safe_new(ptr noundef %3)
  ret i32 1
}